target datalayout = "e-m:e-p270:32:32-p271:32:32-p272:64:64-i64:64-i128:128-f80:128-n8:16:32:64-S128"
target triple = "x86_64-pc-linux-gnu"

%struct._psqlSettings = type { ptr, i32, ptr, i8, ptr, ptr, %struct.printQueryOpt, ptr, ptr, ptr, i8, i8, i32, i32, ptr, ptr, i8, [4 x ptr], i8, i32, ptr, i8, i32, ptr, ptr, i64, i64, i8, ptr, ptr, ptr, i8, i8, i8, i8, i8, i8, i8, i32, i32, i32, i32, i32, i32, i32, i32, ptr, ptr, ptr, i32, i8, i32 }
%struct.printQueryOpt = type { %struct.printTableOpt, ptr, ptr, ptr, i8, ptr, i32 }
%struct.printTableOpt = type { i32, i16, i32, i32, i16, i16, i32, i8, i8, i8, i8, i64, ptr, %struct.separator, %struct.separator, [2 x i8], i8, ptr, i32, i32, i32, i32, i32, i32 }
%struct.separator = type { ptr, i8 }
%struct.__va_list_tag = type { i32, i32, ptr, ptr }

@pset = external global %struct._psqlSettings, align 8
@.str.17 = private unnamed_addr constant [4 x i8] c"<p>\00", align 1
@.str.18 = private unnamed_addr constant [6 x i8] c"</p>\0A\00", align 1
@.str.19 = private unnamed_addr constant [2 x i8] c"\0A\00", align 1

; Function Attrs: nounwind uwtable
define internal void @print_lo_result(ptr noundef %0, ...) #0 {
  %2 = alloca ptr, align 8
  %3 = alloca [1 x %struct.__va_list_tag], align 16
  store ptr %0, ptr %2, align 8
  call void @llvm.lifetime.start.p0(i64 24, ptr %3) #6
  %4 = load i8, ptr getelementptr inbounds nuw (%struct._psqlSettings, ptr @pset, i32 0, i32 33), align 2, !range !4, !noundef !5
  %5 = trunc i8 %4 to i1
  br i1 %5, label %28, label %6

6:                                                ; preds = %1
  %7 = load i32, ptr getelementptr inbounds nuw (%struct._psqlSettings, ptr @pset, i32 0, i32 6), align 8
  %8 = icmp eq i32 %7, 4
  br i1 %8, label %9, label %12

9:                                                ; preds = %6
  %10 = load ptr, ptr getelementptr inbounds nuw (%struct._psqlSettings, ptr @pset, i32 0, i32 2), align 8
  %11 = call i32 @fputs(ptr noundef @.str.17, ptr noundef %10)
  br label %12

12:                                               ; preds = %9, %6
  %13 = getelementptr inbounds [1 x %struct.__va_list_tag], ptr %3, i64 0, i64 0
  call void @llvm.va_start.p0(ptr %13)
  %14 = load ptr, ptr getelementptr inbounds nuw (%struct._psqlSettings, ptr @pset, i32 0, i32 2), align 8
  %15 = load ptr, ptr %2, align 8
  %16 = getelementptr inbounds [1 x %struct.__va_list_tag], ptr %3, i64 0, i64 0
  %17 = call i32 @pg_vfprintf(ptr noundef %14, ptr noundef %15, ptr noundef %16)
  %18 = getelementptr inbounds [1 x %struct.__va_list_tag], ptr %3, i64 0, i64 0
  call void @llvm.va_end.p0(ptr %18)
  %19 = load i32, ptr getelementptr inbounds nuw (%struct._psqlSettings, ptr @pset, i32 0, i32 6), align 8
  %20 = icmp eq i32 %19, 4
  br i1 %20, label %21, label %24

21:                                               ; preds = %12
  %22 = load ptr, ptr getelementptr inbounds nuw (%struct._psqlSettings, ptr @pset, i32 0, i32 2), align 8
  %23 = call i32 @fputs(ptr noundef @.str.18, ptr noundef %22)
  br label %27

24:                                               ; preds = %12
  %25 = load ptr, ptr getelementptr inbounds nuw (%struct._psqlSettings, ptr @pset, i32 0, i32 2), align 8
  %26 = call i32 @fputs(ptr noundef @.str.19, ptr noundef %25)
  br label %27

27:                                               ; preds = %24, %21
  br label %28

28:                                               ; preds = %27, %1
  %29 = load ptr, ptr getelementptr inbounds nuw (%struct._psqlSettings, ptr @pset, i32 0, i32 28), align 8
  %30 = icmp ne ptr %29, null
  br i1 %30, label %31, label %40

31:                                               ; preds = %28
  %32 = getelementptr inbounds [1 x %struct.__va_list_tag], ptr %3, i64 0, i64 0
  call void @llvm.va_start.p0(ptr %32)
  %33 = load ptr, ptr getelementptr inbounds nuw (%struct._psqlSettings, ptr @pset, i32 0, i32 28), align 8
  %34 = load ptr, ptr %2, align 8
  %35 = getelementptr inbounds [1 x %struct.__va_list_tag], ptr %3, i64 0, i64 0
  %36 = call i32 @pg_vfprintf(ptr noundef %33, ptr noundef %34, ptr noundef %35)
  %37 = getelementptr inbounds [1 x %struct.__va_list_tag], ptr %3, i64 0, i64 0
  call void @llvm.va_end.p0(ptr %37)
  %38 = load ptr, ptr getelementptr inbounds nuw (%struct._psqlSettings, ptr @pset, i32 0, i32 28), align 8
  %39 = call i32 @fputs(ptr noundef @.str.19, ptr noundef %38)
  br label %40

40:                                               ; preds = %31, %28
  call void @llvm.lifetime.end.p0(i64 24, ptr %3) #6
  ret void
}