; Function Attrs: nounwind uwtable
define internal void @print_lo_result(ptr noundef %0, ...) unnamed_addr #0 {
  %2 = alloca [1 x %struct.__va_list_tag], align 16
  call void @llvm.lifetime.start.p0(i64 24, ptr nonnull %2) #8
  %3 = load i8, ptr getelementptr inbounds nuw (i8, ptr @pset, i64 402), align 2, !range !4, !noundef !5
  %4 = trunc nuw i8 %3 to i1
  br i1 %4, label %20, label %5

5:                                                ; preds = %1
  %6 = load i32, ptr getelementptr inbounds nuw (i8, ptr @pset, i64 48), align 8
  %7 = icmp eq i32 %6, 4
  br i1 %7, label %8, label %11

8:                                                ; preds = %5
  %9 = load ptr, ptr getelementptr inbounds nuw (i8, ptr @pset, i64 16), align 8
  %10 = tail call i64 @fwrite(ptr nonnull @.str.17, i64 3, i64 1, ptr %9)
  br label %11

11:                                               ; preds = %8, %5
  call void @llvm.va_start.p0(ptr nonnull %2)
  %12 = load ptr, ptr getelementptr inbounds nuw (i8, ptr @pset, i64 16), align 8
  %13 = call i32 @pg_vfprintf(ptr noundef %12, ptr noundef %0, ptr noundef nonnull %2) #8
  call void @llvm.va_end.p0(ptr nonnull %2)
  %14 = load i32, ptr getelementptr inbounds nuw (i8, ptr @pset, i64 48), align 8
  %15 = icmp eq i32 %14, 4
  %16 = load ptr, ptr getelementptr inbounds nuw (i8, ptr @pset, i64 16), align 8
  br i1 %15, label %17, label %19

17:                                               ; preds = %11
  %18 = call i64 @fwrite(ptr nonnull @.str.18, i64 5, i64 1, ptr %16)
  br label %20

19:                                               ; preds = %11
  %fputc = call i32 @fputc(i32 10, ptr %16)
  br label %20

20:                                               ; preds = %17, %19, %1
  %21 = load ptr, ptr getelementptr inbounds nuw (i8, ptr @pset, i64 376), align 8
  %.not = icmp eq ptr %21, null
  br i1 %.not, label %26, label %22

22:                                               ; preds = %20
  call void @llvm.va_start.p0(ptr nonnull %2)
  %23 = load ptr, ptr getelementptr inbounds nuw (i8, ptr @pset, i64 376), align 8
  %24 = call i32 @pg_vfprintf(ptr noundef %23, ptr noundef %0, ptr noundef nonnull %2) #8
  call void @llvm.va_end.p0(ptr nonnull %2)
  %25 = load ptr, ptr getelementptr inbounds nuw (i8, ptr @pset, i64 376), align 8
  %fputc2 = call i32 @fputc(i32 10, ptr %25)
  br label %26

26:                                               ; preds = %22, %20
  call void @llvm.lifetime.end.p0(i64 24, ptr nonnull %2) #8
  ret void
}